ccopy_reg
_reconstructor
p0
(cgoogle.oauth2.credentials
Credentials
p1
c__builtin__
object
p2
Ntp3
Rp4
(dp5
S'_quota_project_id'
p6
NsS'_token_uri'
p7
Vhttps://oauth2.googleapis.com/token
p8
sS'_client_secret'
p9
VyhGBZGJ8bN5u3oXAbFngZLvC
p10
sS'_id_token'
p11
NsS'token'
p12
Vya29.Il-6B5gvyO2Tq23e9sFw0fliARELB3OS5XWYhUvnMInIpG76DzAlgwfhofqUj5NF-A6UbYhMmKgT3i6r3wAmyKv7BTbTpX7w8Av-1z5DufBQyof2IHscvdYNhqE010twgw
p13
sS'_refresh_token'
p14
V1//0fvgNdeyuF37HCgYIARAAGA8SNwF-L9IrWikX_7vXlXq69ZK_gfO0zVoOn8SGriOLSTFXX5zBaGrMPYvmJ1SxSMGgPUt4NxJu-00
p15
sS'_scopes'
p16
(lp17
S'https://www.googleapis.com/auth/calendar.readonly'
p18
asS'_client_id'
p19
V99194629395-jdsfn846ubosm41b2ideb71nk89iqp5m.apps.googleusercontent.com
p20
sS'expiry'
p21
cdatetime
datetime
p22
(S'\x07\xe4\x01\x14\x17\x17\n\n\xdct'
p23
tp24
Rp25
sb.